ARM GAS  C:\Users\Dawid\AppData\Local\Temp\ccdaQYek.s 			page 1


   1              		.syntax unified
   2              		.cpu cortex-m3
   3              		.fpu softvfp
   4              		.eabi_attribute 20, 1
   5              		.eabi_attribute 21, 1
   6              		.eabi_attribute 23, 3
   7              		.eabi_attribute 24, 1
   8              		.eabi_attribute 25, 1
   9              		.eabi_attribute 26, 1
  10              		.eabi_attribute 30, 6
  11              		.eabi_attribute 34, 1
  12              		.eabi_attribute 18, 4
  13              		.file	"gpio.c"
  14              	@ GNU C (GNU Tools for ARM Embedded Processors) version 4.6.2 20120613 (release) [ARM/embedded-4_6-
  15              	@	compiled by GNU C version 4.2.1-sjlj (mingw32-2), GMP version 4.3.2, MPFR version 2.4.2, MPC vers
  16              	@ GGC heuristics: --param ggc-min-expand=100 --param ggc-min-heapsize=131072
  17              	@ options passed:  -I . -imultilib armv7-m
  18              	@ -iprefix c:\program files\gnu tools arm embedded\4.6 2012q2\bin\../lib/gcc/arm-none-eabi/4.6.2/
  19              	@ -isysroot c:\program files\gnu tools arm embedded\4.6 2012q2\bin\../arm-none-eabi
  20              	@ -MD out/gpio.d -MF out/gpio.d -MP -MQ out/gpio.o -D__USES_INITFINI__
  21              	@ -D STM32F10X_MD gpio.c -mcpu=cortex-m3 -mthumb -auxbase-strip out/gpio.o
  22              	@ -g -ggdb3 -O0 -Wall -Wstrict-prototypes -Wextra -std=gnu90
  23              	@ -ffunction-sections -fdata-sections -fverbose-asm
  24              	@ options enabled:  -fauto-inc-dec -fbranch-count-reg -fcommon
  25              	@ -fdata-sections -fdelete-null-pointer-checks -fdwarf2-cfi-asm
  26              	@ -fearly-inlining -feliminate-unused-debug-types -ffunction-cse
  27              	@ -ffunction-sections -fgcse-lm -fident -finline-functions-called-once
  28              	@ -fira-share-save-slots -fira-share-spill-slots -fivopts
  29              	@ -fkeep-static-consts -fleading-underscore -fmath-errno
  30              	@ -fmerge-debug-strings -fmove-loop-invariants -fpeephole
  31              	@ -fprefetch-loop-arrays -freg-struct-return
  32              	@ -fsched-critical-path-heuristic -fsched-dep-count-heuristic
  33              	@ -fsched-group-heuristic -fsched-interblock -fsched-last-insn-heuristic
  34              	@ -fsched-rank-heuristic -fsched-spec -fsched-spec-insn-heuristic
  35              	@ -fsched-stalled-insns-dep -fshow-column -fsigned-zeros
  36              	@ -fsplit-ivs-in-unroller -fstrict-volatile-bitfields -ftrapping-math
  37              	@ -ftree-cselim -ftree-forwprop -ftree-loop-if-convert -ftree-loop-im
  38              	@ -ftree-loop-ivcanon -ftree-loop-optimize -ftree-parallelize-loops=
  39              	@ -ftree-phiprop -ftree-pta -ftree-reassoc -ftree-scev-cprop
  40              	@ -ftree-slp-vectorize -ftree-vect-loop-version -funit-at-a-time
  41              	@ -fverbose-asm -fzero-initialized-in-bss -mfix-cortex-m3-ldrd
  42              	@ -mlittle-endian -msched-prolog -mthumb -munaligned-access
  43              	
  44              		.text
  45              	.Ltext0:
  46              	@ Compiler executable checksum: dbefde2a0f54b62e3321e10f41e245fe
  47              	
  48              		.cfi_sections	.debug_frame
  49              		.section	.text.gpio_init,"ax",%progbits
  50              		.align	2
  51              		.global	gpio_init
  52              		.thumb
  53              		.thumb_func
  54              		.type	gpio_init, %function
  55              	gpio_init:
  56              	.LFB29:
  57              		.file 1 "gpio.c"
ARM GAS  C:\Users\Dawid\AppData\Local\Temp\ccdaQYek.s 			page 2


   1:gpio.c        **** /** \file gpio.c
   2:gpio.c        ****  * \brief GPIO driver.
   3:gpio.c        ****  * \details GPIO default configuration and function for configuring a pin
   4:gpio.c        ****  * \author Freddie Chopin, http://www.freddiechopin.info/
   5:gpio.c        ****  * \date 2012-01-07
   6:gpio.c        ****  */
   7:gpio.c        **** 
   8:gpio.c        **** /******************************************************************************
   9:gpio.c        **** * chip: STM32F1x
  10:gpio.c        **** * compiler: arm-none-eabi-gcc (Sourcery CodeBench Lite 2011.09-69) 4.6.1
  11:gpio.c        **** *
  12:gpio.c        **** * prefix: gpio_
  13:gpio.c        **** *
  14:gpio.c        **** * available global functions:
  15:gpio.c        **** * 	void gpio_init(void)
  16:gpio.c        **** * 	void gpio_pin_cfg(GPIO_TypeDef *port_ptr, uint32_t pin, uint32_t mode_cnf_value)
  17:gpio.c        **** *
  18:gpio.c        **** * available local functions:
  19:gpio.c        **** *
  20:gpio.c        **** * available interrupt handlers:
  21:gpio.c        **** ******************************************************************************/
  22:gpio.c        **** 
  23:gpio.c        **** /*
  24:gpio.c        **** +=============================================================================+
  25:gpio.c        **** | includes
  26:gpio.c        **** +=============================================================================+
  27:gpio.c        **** */
  28:gpio.c        **** 
  29:gpio.c        **** #include <stdint.h>
  30:gpio.c        **** 
  31:gpio.c        **** #include "inc/stm32f10x.h"
  32:gpio.c        **** 
  33:gpio.c        **** #include "hdr/hdr_gpio.h"
  34:gpio.c        **** 
  35:gpio.c        **** #include "gpio.h"
  36:gpio.c        **** 
  37:gpio.c        **** /*
  38:gpio.c        **** +=============================================================================+
  39:gpio.c        **** | module variables
  40:gpio.c        **** +=============================================================================+
  41:gpio.c        **** */
  42:gpio.c        **** 
  43:gpio.c        **** /*
  44:gpio.c        **** +=============================================================================+
  45:gpio.c        **** | local functions' declarations
  46:gpio.c        **** +=============================================================================+
  47:gpio.c        **** */
  48:gpio.c        **** 
  49:gpio.c        **** /*
  50:gpio.c        **** +=============================================================================+
  51:gpio.c        **** | global functions
  52:gpio.c        **** +=============================================================================+
  53:gpio.c        **** */
  54:gpio.c        **** 
  55:gpio.c        **** /*------------------------------------------------------------------------*//**
  56:gpio.c        **** * \brief GPIO initialization.
  57:gpio.c        **** * \details Enables AFIO, all GPIO ports and sets them to input with pull-downs.
ARM GAS  C:\Users\Dawid\AppData\Local\Temp\ccdaQYek.s 			page 3


  58:gpio.c        **** *//*-------------------------------------------------------------------------*/
  59:gpio.c        **** 
  60:gpio.c        **** void gpio_init(void)
  61:gpio.c        **** {
  58              		.loc 1 61 0
  59              		.cfi_startproc
  60              		@ args = 0, pretend = 0, frame = 0
  61              		@ frame_needed = 1, uses_anonymous_args = 0
  62              		@ link register save eliminated.
  63 0000 80B4     		push	{r7}	@
  64              	.LCFI0:
  65              		.cfi_def_cfa_offset 4
  66              		.cfi_offset 7, -4
  67 0002 00AF     		add	r7, sp, #0	@,,
  68              	.LCFI1:
  69              		.cfi_def_cfa_register 7
  62:gpio.c        **** 	RCC->APB2ENR = RCC_APB2ENR_IOPAEN | RCC_APB2ENR_IOPBEN | RCC_APB2ENR_IOPCEN |
  70              		.loc 1 62 0
  71 0004 4FF48053 		mov	r3, #4096	@ D.5592,
  72 0008 C4F20203 		movt	r3, 16386	@ D.5592,
  73 000c 4FF07D02 		mov	r2, #125	@ tmp150,
  74 0010 9A61     		str	r2, [r3, #24]	@ tmp150, D.5592_1->APB2ENR
  63:gpio.c        **** 			RCC_APB2ENR_IOPDEN | RCC_APB2ENR_IOPEEN | RCC_APB2ENR_AFIOEN;	// enable all GPIOs and AFIO
  64:gpio.c        **** 
  65:gpio.c        **** 	// set all ports to input with pull-down
  66:gpio.c        **** 	GPIOA->CRL = 0x88888888;
  75              		.loc 1 66 0
  76 0012 4FF40063 		mov	r3, #2048	@ D.5593,
  77 0016 C4F20103 		movt	r3, 16385	@ D.5593,
  78 001a 4FF08832 		mov	r2, #-2004318072	@ tmp151,
  79 001e 1A60     		str	r2, [r3, #0]	@ tmp151, D.5593_2->CRL
  67:gpio.c        **** 	GPIOA->CRH = 0x88888888;
  80              		.loc 1 67 0
  81 0020 4FF40063 		mov	r3, #2048	@ D.5594,
  82 0024 C4F20103 		movt	r3, 16385	@ D.5594,
  83 0028 4FF08832 		mov	r2, #-2004318072	@ tmp152,
  84 002c 5A60     		str	r2, [r3, #4]	@ tmp152, D.5594_3->CRH
  68:gpio.c        **** 	GPIOA->ODR = 0;
  85              		.loc 1 68 0
  86 002e 4FF40063 		mov	r3, #2048	@ D.5595,
  87 0032 C4F20103 		movt	r3, 16385	@ D.5595,
  88 0036 4FF00002 		mov	r2, #0	@ tmp153,
  89 003a DA60     		str	r2, [r3, #12]	@ tmp153, D.5595_4->ODR
  69:gpio.c        **** 	GPIOB->CRL = 0x88888888;
  90              		.loc 1 69 0
  91 003c 4FF44063 		mov	r3, #3072	@ D.5596,
  92 0040 C4F20103 		movt	r3, 16385	@ D.5596,
  93 0044 4FF08832 		mov	r2, #-2004318072	@ tmp154,
  94 0048 1A60     		str	r2, [r3, #0]	@ tmp154, D.5596_5->CRL
  70:gpio.c        **** 	GPIOB->CRH = 0x88888888;
  95              		.loc 1 70 0
  96 004a 4FF44063 		mov	r3, #3072	@ D.5597,
  97 004e C4F20103 		movt	r3, 16385	@ D.5597,
  98 0052 4FF08832 		mov	r2, #-2004318072	@ tmp155,
  99 0056 5A60     		str	r2, [r3, #4]	@ tmp155, D.5597_6->CRH
  71:gpio.c        **** 	GPIOB->ODR = 0;
 100              		.loc 1 71 0
ARM GAS  C:\Users\Dawid\AppData\Local\Temp\ccdaQYek.s 			page 4


 101 0058 4FF44063 		mov	r3, #3072	@ D.5598,
 102 005c C4F20103 		movt	r3, 16385	@ D.5598,
 103 0060 4FF00002 		mov	r2, #0	@ tmp156,
 104 0064 DA60     		str	r2, [r3, #12]	@ tmp156, D.5598_7->ODR
  72:gpio.c        **** 	GPIOC->CRL = 0x88888888;
 105              		.loc 1 72 0
 106 0066 4FF48053 		mov	r3, #4096	@ D.5599,
 107 006a C4F20103 		movt	r3, 16385	@ D.5599,
 108 006e 4FF08832 		mov	r2, #-2004318072	@ tmp157,
 109 0072 1A60     		str	r2, [r3, #0]	@ tmp157, D.5599_8->CRL
  73:gpio.c        **** 	GPIOC->CRH = 0x88888888;
 110              		.loc 1 73 0
 111 0074 4FF48053 		mov	r3, #4096	@ D.5600,
 112 0078 C4F20103 		movt	r3, 16385	@ D.5600,
 113 007c 4FF08832 		mov	r2, #-2004318072	@ tmp158,
 114 0080 5A60     		str	r2, [r3, #4]	@ tmp158, D.5600_9->CRH
  74:gpio.c        **** 	GPIOC->ODR = 0;
 115              		.loc 1 74 0
 116 0082 4FF48053 		mov	r3, #4096	@ D.5601,
 117 0086 C4F20103 		movt	r3, 16385	@ D.5601,
 118 008a 4FF00002 		mov	r2, #0	@ tmp159,
 119 008e DA60     		str	r2, [r3, #12]	@ tmp159, D.5601_10->ODR
  75:gpio.c        **** 	GPIOD->CRL = 0x88888888;
 120              		.loc 1 75 0
 121 0090 4FF4A053 		mov	r3, #5120	@ D.5602,
 122 0094 C4F20103 		movt	r3, 16385	@ D.5602,
 123 0098 4FF08832 		mov	r2, #-2004318072	@ tmp160,
 124 009c 1A60     		str	r2, [r3, #0]	@ tmp160, D.5602_11->CRL
  76:gpio.c        **** 	GPIOD->CRH = 0x88888888;
 125              		.loc 1 76 0
 126 009e 4FF4A053 		mov	r3, #5120	@ D.5603,
 127 00a2 C4F20103 		movt	r3, 16385	@ D.5603,
 128 00a6 4FF08832 		mov	r2, #-2004318072	@ tmp161,
 129 00aa 5A60     		str	r2, [r3, #4]	@ tmp161, D.5603_12->CRH
  77:gpio.c        **** 	GPIOD->ODR = 0;
 130              		.loc 1 77 0
 131 00ac 4FF4A053 		mov	r3, #5120	@ D.5604,
 132 00b0 C4F20103 		movt	r3, 16385	@ D.5604,
 133 00b4 4FF00002 		mov	r2, #0	@ tmp162,
 134 00b8 DA60     		str	r2, [r3, #12]	@ tmp162, D.5604_13->ODR
  78:gpio.c        **** 	GPIOE->CRL = 0x88888888;
 135              		.loc 1 78 0
 136 00ba 4FF4C053 		mov	r3, #6144	@ D.5605,
 137 00be C4F20103 		movt	r3, 16385	@ D.5605,
 138 00c2 4FF08832 		mov	r2, #-2004318072	@ tmp163,
 139 00c6 1A60     		str	r2, [r3, #0]	@ tmp163, D.5605_14->CRL
  79:gpio.c        **** 	GPIOE->CRH = 0x88888888;
 140              		.loc 1 79 0
 141 00c8 4FF4C053 		mov	r3, #6144	@ D.5606,
 142 00cc C4F20103 		movt	r3, 16385	@ D.5606,
 143 00d0 4FF08832 		mov	r2, #-2004318072	@ tmp164,
 144 00d4 5A60     		str	r2, [r3, #4]	@ tmp164, D.5606_15->CRH
  80:gpio.c        **** 	GPIOE->ODR = 0;
 145              		.loc 1 80 0
 146 00d6 4FF4C053 		mov	r3, #6144	@ D.5607,
 147 00da C4F20103 		movt	r3, 16385	@ D.5607,
 148 00de 4FF00002 		mov	r2, #0	@ tmp165,
ARM GAS  C:\Users\Dawid\AppData\Local\Temp\ccdaQYek.s 			page 5


 149 00e2 DA60     		str	r2, [r3, #12]	@ tmp165, D.5607_16->ODR
  81:gpio.c        **** }
 150              		.loc 1 81 0
 151 00e4 BD46     		mov	sp, r7
 152 00e6 80BC     		pop	{r7}
 153 00e8 7047     		bx	lr
 154              		.cfi_endproc
 155              	.LFE29:
 156              		.size	gpio_init, .-gpio_init
 157 00ea 00BF     		.section	.text.gpio_pin_cfg,"ax",%progbits
 158              		.align	2
 159              		.global	gpio_pin_cfg
 160              		.thumb
 161              		.thumb_func
 162              		.type	gpio_pin_cfg, %function
 163              	gpio_pin_cfg:
 164              	.LFB30:
  82:gpio.c        **** 
  83:gpio.c        **** /*------------------------------------------------------------------------*//**
  84:gpio.c        **** * \brief Configures pin.
  85:gpio.c        **** * \details Configures one pin in one port.
  86:gpio.c        **** *
  87:gpio.c        **** * \param [in] port_ptr points to the configuration structure of desired port
  88:gpio.c        **** * \param [in] pin selects one pin, [0,15]
  89:gpio.c        **** * \param [in] mode_cnf_value is a value of MODE and CNF which will be set for
  90:gpio.c        **** * selected pin, {GPIO_CRx_MODE_CNF_IN_ANALOG_value,
  91:gpio.c        **** * GPIO_CRx_MODE_CNF_IN_FLOATING_value, GPIO_CRx_MODE_CNF_IN_PULL_U_D_value,
  92:gpio.c        **** * GPIO_CRx_MODE_CNF_OUT_PP_2M_value, GPIO_CRx_MODE_CNF_OUT_PP_10M_value,
  93:gpio.c        **** * GPIO_CRx_MODE_CNF_OUT_PP_50M_value, GPIO_CRx_MODE_CNF_OUT_OD_2M_value,
  94:gpio.c        **** * GPIO_CRx_MODE_CNF_OUT_OD_10M_value, GPIO_CRx_MODE_CNF_OUT_OD_50M_value,
  95:gpio.c        **** * GPIO_CRx_MODE_CNF_ALT_PP_2M_value, GPIO_CRx_MODE_CNF_ALT_PP_10M_value,
  96:gpio.c        **** * GPIO_CRx_MODE_CNF_ALT_PP_50M_value, GPIO_CRx_MODE_CNF_ALT_OD_2M_value,
  97:gpio.c        **** * GPIO_CRx_MODE_CNF_ALT_OD_10M_value, GPIO_CRx_MODE_CNF_ALT_OD_50M_value} or
  98:gpio.c        **** * use m_GPIO_MODE_CNF_value(mode, cnf) macro
  99:gpio.c        **** *//*-------------------------------------------------------------------------*/
 100:gpio.c        **** 
 101:gpio.c        **** void gpio_pin_cfg(GPIO_TypeDef *port_ptr, uint32_t pin, uint32_t mode_cnf_value)
 102:gpio.c        **** {
 165              		.loc 1 102 0
 166              		.cfi_startproc
 167              		@ args = 0, pretend = 0, frame = 24
 168              		@ frame_needed = 1, uses_anonymous_args = 0
 169              		@ link register save eliminated.
 170 0000 80B4     		push	{r7}	@
 171              	.LCFI2:
 172              		.cfi_def_cfa_offset 4
 173              		.cfi_offset 7, -4
 174 0002 87B0     		sub	sp, sp, #28	@,,
 175              	.LCFI3:
 176              		.cfi_def_cfa_offset 32
 177 0004 00AF     		add	r7, sp, #0	@,,
 178              	.LCFI4:
 179              		.cfi_def_cfa_register 7
 180 0006 F860     		str	r0, [r7, #12]	@ port_ptr, port_ptr
 181 0008 B960     		str	r1, [r7, #8]	@ pin, pin
 182 000a 7A60     		str	r2, [r7, #4]	@ mode_cnf_value, mode_cnf_value
 103:gpio.c        **** 	volatile uint32_t *cr_ptr;
ARM GAS  C:\Users\Dawid\AppData\Local\Temp\ccdaQYek.s 			page 6


 104:gpio.c        **** 	uint32_t cr_value;
 105:gpio.c        **** 
 106:gpio.c        **** 	cr_ptr = &port_ptr->CRL;				// configuration of pins [0,7] is in CRL
 183              		.loc 1 106 0
 184 000c FB68     		ldr	r3, [r7, #12]	@ tmp142, port_ptr
 185 000e 7B61     		str	r3, [r7, #20]	@ tmp142, cr_ptr
 107:gpio.c        **** 
 108:gpio.c        **** 	if (pin >= 8)							// is pin in [8; 15]?
 186              		.loc 1 108 0
 187 0010 BB68     		ldr	r3, [r7, #8]	@ tmp143, pin
 188 0012 072B     		cmp	r3, #7	@ tmp143,
 189 0014 07D9     		bls	.L3	@,
 109:gpio.c        **** 	{										// configuration of pins [8,15] is in CRH
 110:gpio.c        **** 		cr_ptr++;							// advance to next struct element CRL -> CRH
 190              		.loc 1 110 0
 191 0016 7B69     		ldr	r3, [r7, #20]	@ tmp144, cr_ptr
 192 0018 03F10403 		add	r3, r3, #4	@ tmp145, tmp144,
 193 001c 7B61     		str	r3, [r7, #20]	@ tmp145, cr_ptr
 111:gpio.c        **** 		pin -= 8;							// crop the pin number
 194              		.loc 1 111 0
 195 001e BB68     		ldr	r3, [r7, #8]	@ tmp146, pin
 196 0020 A3F10803 		sub	r3, r3, #8	@ tmp147, tmp146,
 197 0024 BB60     		str	r3, [r7, #8]	@ tmp147, pin
 198              	.L3:
 112:gpio.c        **** 	}
 113:gpio.c        **** 
 114:gpio.c        **** 	cr_value = *cr_ptr;						// localize the CRL / CRH value
 199              		.loc 1 114 0
 200 0026 7B69     		ldr	r3, [r7, #20]	@ tmp148, cr_ptr
 201 0028 1B68     		ldr	r3, [r3, #0]	@ tmp149, *cr_ptr_2
 202 002a 3B61     		str	r3, [r7, #16]	@ tmp149, cr_value
 115:gpio.c        **** 
 116:gpio.c        **** 	cr_value &= ~(GPIO_CRx_MODE_CNF_mask << (pin * 4));	// clear the MODE and CNF fields (now that pin
 203              		.loc 1 116 0
 204 002c BB68     		ldr	r3, [r7, #8]	@ tmp150, pin
 205 002e 4FEA8303 		lsl	r3, r3, #2	@ D.5584, tmp150,
 206 0032 4FF00F02 		mov	r2, #15	@ tmp151,
 207 0036 02FA03F3 		lsl	r3, r2, r3	@ D.5586, tmp151, D.5585
 208 003a 6FEA0303 		mvn	r3, r3	@ D.5587, D.5586
 209 003e 3A69     		ldr	r2, [r7, #16]	@ tmp152, cr_value
 210 0040 1340     		ands	r3, r3, r2	@, tmp153, D.5588, tmp152
 211 0042 3B61     		str	r3, [r7, #16]	@ tmp153, cr_value
 117:gpio.c        **** 	cr_value |= (mode_cnf_value << (pin * 4));	// save new MODE and CNF value for desired pin
 212              		.loc 1 117 0
 213 0044 BB68     		ldr	r3, [r7, #8]	@ tmp154, pin
 214 0046 4FEA8303 		lsl	r3, r3, #2	@ D.5589, tmp154,
 215 004a 7A68     		ldr	r2, [r7, #4]	@ tmp155, mode_cnf_value
 216 004c 02FA03F3 		lsl	r3, r2, r3	@ D.5591, tmp155, D.5590
 217 0050 3A69     		ldr	r2, [r7, #16]	@ tmp156, cr_value
 218 0052 1343     		orrs	r3, r3, r2	@, tmp157, D.5591, tmp156
 219 0054 3B61     		str	r3, [r7, #16]	@ tmp157, cr_value
 118:gpio.c        **** 
 119:gpio.c        **** 	*cr_ptr = cr_value;						// save localized value to CRL / CRL
 220              		.loc 1 119 0
 221 0056 7B69     		ldr	r3, [r7, #20]	@ tmp158, cr_ptr
 222 0058 3A69     		ldr	r2, [r7, #16]	@ tmp159, cr_value
 223 005a 1A60     		str	r2, [r3, #0]	@ tmp159, *cr_ptr_2
ARM GAS  C:\Users\Dawid\AppData\Local\Temp\ccdaQYek.s 			page 7


 120:gpio.c        **** }
 224              		.loc 1 120 0
 225 005c 07F11C07 		add	r7, r7, #28	@,,
 226 0060 BD46     		mov	sp, r7
 227 0062 80BC     		pop	{r7}
 228 0064 7047     		bx	lr
 229              		.cfi_endproc
 230              	.LFE30:
 231              		.size	gpio_pin_cfg, .-gpio_pin_cfg
 232 0066 00BF     		.text
 233              	.Letext0:
 234              		.file 2 "inc/stm32f10x.h"
 235              		.file 3 "c:\\program files\\gnu tools arm embedded\\4.6 2012q2\\bin\\../lib/gcc/arm-none-eabi/4.6.
 236              		.file 4 "inc/core_cm3.h"