ARM GAS  C:\Users\Dawid\AppData\Local\Temp\ccmRn2BN.s 			page 1


   1              		.syntax unified
   2              		.cpu cortex-m3
   3              		.fpu softvfp
   4              		.eabi_attribute 20, 1
   5              		.eabi_attribute 21, 1
   6              		.eabi_attribute 23, 3
   7              		.eabi_attribute 24, 1
   8              		.eabi_attribute 25, 1
   9              		.eabi_attribute 26, 1
  10              		.eabi_attribute 30, 6
  11              		.eabi_attribute 34, 1
  12              		.eabi_attribute 18, 4
  13              		.file	"main.c"
  14              	@ GNU C (GNU Tools for ARM Embedded Processors) version 4.6.2 20120613 (release) [ARM/embedded-4_6-
  15              	@	compiled by GNU C version 4.2.1-sjlj (mingw32-2), GMP version 4.3.2, MPFR version 2.4.2, MPC vers
  16              	@ GGC heuristics: --param ggc-min-expand=100 --param ggc-min-heapsize=131072
  17              	@ options passed:  -I . -imultilib armv7-m
  18              	@ -iprefix c:\program files\gnu tools arm embedded\4.6 2012q2\bin\../lib/gcc/arm-none-eabi/4.6.2/
  19              	@ -isysroot c:\program files\gnu tools arm embedded\4.6 2012q2\bin\../arm-none-eabi
  20              	@ -MD out/main.d -MF out/main.d -MP -MQ out/main.o -D__USES_INITFINI__
  21              	@ -D STM32F10X_MD main.c -mcpu=cortex-m3 -mthumb -auxbase-strip out/main.o
  22              	@ -g -ggdb3 -O0 -Wall -Wstrict-prototypes -Wextra -std=gnu90
  23              	@ -ffunction-sections -fdata-sections -fverbose-asm
  24              	@ options enabled:  -fauto-inc-dec -fbranch-count-reg -fcommon
  25              	@ -fdata-sections -fdelete-null-pointer-checks -fdwarf2-cfi-asm
  26              	@ -fearly-inlining -feliminate-unused-debug-types -ffunction-cse
  27              	@ -ffunction-sections -fgcse-lm -fident -finline-functions-called-once
  28              	@ -fira-share-save-slots -fira-share-spill-slots -fivopts
  29              	@ -fkeep-static-consts -fleading-underscore -fmath-errno
  30              	@ -fmerge-debug-strings -fmove-loop-invariants -fpeephole
  31              	@ -fprefetch-loop-arrays -freg-struct-return
  32              	@ -fsched-critical-path-heuristic -fsched-dep-count-heuristic
  33              	@ -fsched-group-heuristic -fsched-interblock -fsched-last-insn-heuristic
  34              	@ -fsched-rank-heuristic -fsched-spec -fsched-spec-insn-heuristic
  35              	@ -fsched-stalled-insns-dep -fshow-column -fsigned-zeros
  36              	@ -fsplit-ivs-in-unroller -fstrict-volatile-bitfields -ftrapping-math
  37              	@ -ftree-cselim -ftree-forwprop -ftree-loop-if-convert -ftree-loop-im
  38              	@ -ftree-loop-ivcanon -ftree-loop-optimize -ftree-parallelize-loops=
  39              	@ -ftree-phiprop -ftree-pta -ftree-reassoc -ftree-scev-cprop
  40              	@ -ftree-slp-vectorize -ftree-vect-loop-version -funit-at-a-time
  41              	@ -fverbose-asm -fzero-initialized-in-bss -mfix-cortex-m3-ldrd
  42              	@ -mlittle-endian -msched-prolog -mthumb -munaligned-access
  43              	
  44              		.text
  45              	.Ltext0:
  46              	@ Compiler executable checksum: dbefde2a0f54b62e3321e10f41e245fe
  47              	
  48              		.cfi_sections	.debug_frame
  49              		.section	.text.main,"ax",%progbits
  50              		.align	2
  51              		.global	main
  52              		.thumb
  53              		.thumb_func
  54              		.type	main, %function
  55              	main:
  56              	.LFB29:
  57              		.file 1 "main.c"
ARM GAS  C:\Users\Dawid\AppData\Local\Temp\ccmRn2BN.s 			page 2


   1:main.c        **** /** \file main.c
   2:main.c        ****  * \brief Sample STM32 project
   3:main.c        ****  * \details This file holds a very basic code for STM32F103RB. This code
   4:main.c        ****  * enables all GPIO ports, configures Flash wait-states and enables the PLL
   5:main.c        ****  * to achieve the highest allowed frequency for STM32F103RB (72MHz). Main
   6:main.c        ****  * code block just blinks the LED. The LED port and pin are defined in
   7:main.c        ****  * config.h file. Target core frequency and quartz crystal resonator
   8:main.c        ****  * frequency are defined there as well.
   9:main.c        ****  *
  10:main.c        ****  * \author Freddie Chopin, http://www.freddiechopin.info/
  11:main.c        ****  * \date 2012-01-07
  12:main.c        ****  */
  13:main.c        **** 
  14:main.c        **** /******************************************************************************
  15:main.c        **** * project: stm32_blink_led
  16:main.c        **** * chip: STM32F103RB
  17:main.c        **** * compiler: arm-none-eabi-gcc (Sourcery CodeBench Lite 2011.09-69) 4.6.1
  18:main.c        **** *
  19:main.c        **** * prefix: (none)
  20:main.c        **** *
  21:main.c        **** * available global functions:
  22:main.c        **** * 	int main(void)
  23:main.c        **** *
  24:main.c        **** * available local functions:
  25:main.c        **** * 	static void flash_latency(uint32_t frequency)
  26:main.c        **** * 	static uint32_t pll_start(uint32_t crystal, uint32_t frequency)
  27:main.c        **** * 	static void system_init(void)
  28:main.c        **** *
  29:main.c        **** * available interrupt handlers:
  30:main.c        **** ******************************************************************************/
  31:main.c        **** 
  32:main.c        **** /*
  33:main.c        **** +=============================================================================+
  34:main.c        **** | includes
  35:main.c        **** +=============================================================================+
  36:main.c        **** */
  37:main.c        **** 
  38:main.c        **** #include <stdint.h>
  39:main.c        **** 
  40:main.c        **** #include "inc/stm32f10x.h"
  41:main.c        **** 
  42:main.c        **** #include "config.h"
  43:main.c        **** 
  44:main.c        **** #include "hdr/hdr_rcc.h"
  45:main.c        **** #include "hdr/hdr_gpio.h"
  46:main.c        **** 
  47:main.c        **** #include "gpio.h"
  48:main.c        **** 
  49:main.c        **** /*
  50:main.c        **** +=============================================================================+
  51:main.c        **** | module variables
  52:main.c        **** +=============================================================================+
  53:main.c        **** */
  54:main.c        **** 
  55:main.c        **** /*
  56:main.c        **** +=============================================================================+
  57:main.c        **** | local functions' declarations
ARM GAS  C:\Users\Dawid\AppData\Local\Temp\ccmRn2BN.s 			page 3


  58:main.c        **** +=============================================================================+
  59:main.c        **** */
  60:main.c        **** 
  61:main.c        **** static void flash_latency(uint32_t frequency);
  62:main.c        **** static uint32_t pll_start(uint32_t crystal, uint32_t frequency);
  63:main.c        **** static void system_init(void);
  64:main.c        **** 
  65:main.c        **** /*
  66:main.c        **** +=============================================================================+
  67:main.c        **** | global functions
  68:main.c        **** +=============================================================================+
  69:main.c        **** */
  70:main.c        **** 
  71:main.c        **** /*------------------------------------------------------------------------*//**
  72:main.c        **** * \brief main code block
  73:main.c        **** * \details Call some static initialization functions and blink the led with
  74:main.c        **** * frequency defined via count_max variable.
  75:main.c        **** *//*-------------------------------------------------------------------------*/
  76:main.c        **** 
  77:main.c        **** int main(void)
  78:main.c        **** {
  58              		.loc 1 78 0
  59              		.cfi_startproc
  60              		@ args = 0, pretend = 0, frame = 8
  61              		@ frame_needed = 1, uses_anonymous_args = 0
  62 0000 80B5     		push	{r7, lr}	@
  63              	.LCFI0:
  64              		.cfi_def_cfa_offset 8
  65              		.cfi_offset 14, -4
  66              		.cfi_offset 7, -8
  67 0002 82B0     		sub	sp, sp, #8	@,,
  68              	.LCFI1:
  69              		.cfi_def_cfa_offset 16
  70 0004 00AF     		add	r7, sp, #0	@,,
  71              	.LCFI2:
  72              		.cfi_def_cfa_register 7
  79:main.c        **** 	volatile uint32_t count, count_max = 1000000;
  73              		.loc 1 79 0
  74 0006 44F24023 		movw	r3, #16960	@ tmp145,
  75 000a C0F20F03 		movt	r3, 15	@ tmp145,
  76 000e 3B60     		str	r3, [r7, #0]	@ tmp145, count_max
  80:main.c        **** 
  81:main.c        **** 	system_init();
  77              		.loc 1 81 0
  78 0010 FFF7FEFF 		bl	system_init	@
  82:main.c        **** 	pll_start(CRYSTAL, FREQUENCY);
  79              		.loc 1 82 0
  80 0014 4FF49050 		mov	r0, #4608	@,
  81 0018 C0F27A00 		movt	r0, 122	@,
  82 001c 4FF42241 		mov	r1, #41472	@,
  83 0020 C0F24A41 		movt	r1, 1098	@,
  84 0024 FFF7FEFF 		bl	pll_start	@
  83:main.c        **** 
  84:main.c        **** 	gpio_pin_cfg(LED_GPIO, LED_pin, GPIO_CRx_MODE_CNF_OUT_PP_10M_value);
  85              		.loc 1 84 0
  86 0028 4FF44060 		mov	r0, #3072	@,
  87 002c C4F20100 		movt	r0, 16385	@,
ARM GAS  C:\Users\Dawid\AppData\Local\Temp\ccmRn2BN.s 			page 4


  88 0030 4FF00101 		mov	r1, #1	@,
  89 0034 4FF00102 		mov	r2, #1	@,
  90 0038 FFF7FEFF 		bl	gpio_pin_cfg	@
  91              	.L6:
  85:main.c        **** 
  86:main.c        **** 	while (1)
  87:main.c        **** 	{
  88:main.c        **** 		for (count = 0; count < count_max; count++);	// delay
  92              		.loc 1 88 0
  93 003c 4FF00003 		mov	r3, #0	@ tmp146,
  94 0040 7B60     		str	r3, [r7, #4]	@ tmp146, count
  95 0042 03E0     		b	.L2	@
  96              	.L3:
  97              		.loc 1 88 0 is_stmt 0 discriminator 2
  98 0044 7B68     		ldr	r3, [r7, #4]	@ count.0, count
  99 0046 03F10103 		add	r3, r3, #1	@ count.1, count.0,
 100 004a 7B60     		str	r3, [r7, #4]	@ count.1, count
 101              	.L2:
 102              		.loc 1 88 0 discriminator 1
 103 004c 7A68     		ldr	r2, [r7, #4]	@ count.2, count
 104 004e 3B68     		ldr	r3, [r7, #0]	@ count_max.3, count_max
 105 0050 9A42     		cmp	r2, r3	@ count.2, count_max.3
 106 0052 F7D3     		bcc	.L3	@,
  89:main.c        **** 		LED_bb = 1;
 107              		.loc 1 89 0 is_stmt 1
 108 0054 48F28413 		movw	r3, #33156	@ D.5651,
 109 0058 C4F22123 		movt	r3, 16929	@ D.5651,
 110 005c 4FF00102 		mov	r2, #1	@ tmp147,
 111 0060 1A60     		str	r2, [r3, #0]	@ tmp147, *D.5651_5
  90:main.c        **** 		for (count = 0; count < count_max; count++);	// delay
 112              		.loc 1 90 0
 113 0062 4FF00003 		mov	r3, #0	@ tmp148,
 114 0066 7B60     		str	r3, [r7, #4]	@ tmp148, count
 115 0068 03E0     		b	.L4	@
 116              	.L5:
 117              		.loc 1 90 0 is_stmt 0 discriminator 2
 118 006a 7B68     		ldr	r3, [r7, #4]	@ count.4, count
 119 006c 03F10103 		add	r3, r3, #1	@ count.5, count.4,
 120 0070 7B60     		str	r3, [r7, #4]	@ count.5, count
 121              	.L4:
 122              		.loc 1 90 0 discriminator 1
 123 0072 7A68     		ldr	r2, [r7, #4]	@ count.6, count
 124 0074 3B68     		ldr	r3, [r7, #0]	@ count_max.7, count_max
 125 0076 9A42     		cmp	r2, r3	@ count.6, count_max.7
 126 0078 F7D3     		bcc	.L5	@,
  91:main.c        **** 		LED_bb = 0;
 127              		.loc 1 91 0 is_stmt 1
 128 007a 48F28413 		movw	r3, #33156	@ D.5656,
 129 007e C4F22123 		movt	r3, 16929	@ D.5656,
 130 0082 4FF00002 		mov	r2, #0	@ tmp149,
 131 0086 1A60     		str	r2, [r3, #0]	@ tmp149, *D.5656_10
  92:main.c        **** 	}
 132              		.loc 1 92 0
 133 0088 D8E7     		b	.L6	@
 134              		.cfi_endproc
 135              	.LFE29:
 136              		.size	main, .-main
ARM GAS  C:\Users\Dawid\AppData\Local\Temp\ccmRn2BN.s 			page 5


 137 008a 00BF     		.section	.text.flash_latency,"ax",%progbits
 138              		.align	2
 139              		.thumb
 140              		.thumb_func
 141              		.type	flash_latency, %function
 142              	flash_latency:
 143              	.LFB30:
  93:main.c        **** }
  94:main.c        **** 
  95:main.c        **** /*
  96:main.c        **** +=============================================================================+
  97:main.c        **** | local functions
  98:main.c        **** +=============================================================================+
  99:main.c        **** */
 100:main.c        **** 
 101:main.c        **** /*------------------------------------------------------------------------*//**
 102:main.c        **** * \brief Configures Flash latency
 103:main.c        **** * \details Configures Flash latency (wait-states) which allows the chip to run
 104:main.c        **** * at higher speeds
 105:main.c        **** *
 106:main.c        **** * \param [in] frequency defines the target frequency of the core
 107:main.c        **** *//*-------------------------------------------------------------------------*/
 108:main.c        **** 
 109:main.c        **** static void flash_latency(uint32_t frequency)
 110:main.c        **** {
 144              		.loc 1 110 0
 145              		.cfi_startproc
 146              		@ args = 0, pretend = 0, frame = 16
 147              		@ frame_needed = 1, uses_anonymous_args = 0
 148              		@ link register save eliminated.
 149 0000 80B4     		push	{r7}	@
 150              	.LCFI3:
 151              		.cfi_def_cfa_offset 4
 152              		.cfi_offset 7, -4
 153 0002 85B0     		sub	sp, sp, #20	@,,
 154              	.LCFI4:
 155              		.cfi_def_cfa_offset 24
 156 0004 00AF     		add	r7, sp, #0	@,,
 157              	.LCFI5:
 158              		.cfi_def_cfa_register 7
 159 0006 7860     		str	r0, [r7, #4]	@ frequency, frequency
 111:main.c        **** 	uint32_t wait_states;
 112:main.c        **** 
 113:main.c        **** 	if (frequency < 24000000ul)				// 0 wait states for core speed below 24MHz
 160              		.loc 1 113 0
 161 0008 7A68     		ldr	r2, [r7, #4]	@ tmp138, frequency
 162 000a 43F2FF53 		movw	r3, #13823	@ tmp139,
 163 000e C0F26E13 		movt	r3, 366	@ tmp139,
 164 0012 9A42     		cmp	r2, r3	@ tmp138, tmp139
 165 0014 03D8     		bhi	.L8	@,
 114:main.c        **** 		wait_states = 0;
 166              		.loc 1 114 0
 167 0016 4FF00003 		mov	r3, #0	@ tmp140,
 168 001a FB60     		str	r3, [r7, #12]	@ tmp140, wait_states
 169 001c 0DE0     		b	.L9	@
 170              	.L8:
 115:main.c        **** 	else if (frequency < 48000000ul)		// 1 wait state for core speed between 24MHz and 48MHz
ARM GAS  C:\Users\Dawid\AppData\Local\Temp\ccmRn2BN.s 			page 6


 171              		.loc 1 115 0
 172 001e 7A68     		ldr	r2, [r7, #4]	@ tmp141, frequency
 173 0020 46F6FF33 		movw	r3, #27647	@ tmp142,
 174 0024 C0F2DC23 		movt	r3, 732	@ tmp142,
 175 0028 9A42     		cmp	r2, r3	@ tmp141, tmp142
 176 002a 03D8     		bhi	.L10	@,
 116:main.c        **** 		wait_states = 1;
 177              		.loc 1 116 0
 178 002c 4FF00103 		mov	r3, #1	@ tmp143,
 179 0030 FB60     		str	r3, [r7, #12]	@ tmp143, wait_states
 180 0032 02E0     		b	.L9	@
 181              	.L10:
 117:main.c        **** 	else									// 2 wait states for core speed over 48MHz
 118:main.c        **** 		wait_states = 2;
 182              		.loc 1 118 0
 183 0034 4FF00203 		mov	r3, #2	@ tmp144,
 184 0038 FB60     		str	r3, [r7, #12]	@ tmp144, wait_states
 185              	.L9:
 119:main.c        **** 
 120:main.c        **** 	FLASH->ACR |= wait_states;				// set the latency
 186              		.loc 1 120 0
 187 003a 4FF40053 		mov	r3, #8192	@ D.5643,
 188 003e C4F20203 		movt	r3, 16386	@ D.5643,
 189 0042 4FF40052 		mov	r2, #8192	@ D.5644,
 190 0046 C4F20202 		movt	r2, 16386	@ D.5644,
 191 004a 1268     		ldr	r2, [r2, #0]	@ tmp145,* D.5644
 192 004c 1146     		mov	r1, r2	@ D.5645, tmp145
 193 004e FA68     		ldr	r2, [r7, #12]	@ tmp146, wait_states
 194 0050 0A43     		orrs	r2, r2, r1	@, D.5646, tmp146, D.5645
 195 0052 1A60     		str	r2, [r3, #0]	@ D.5646, D.5643_6->ACR
 121:main.c        **** }
 196              		.loc 1 121 0
 197 0054 07F11407 		add	r7, r7, #20	@,,
 198 0058 BD46     		mov	sp, r7
 199 005a 80BC     		pop	{r7}
 200 005c 7047     		bx	lr
 201              		.cfi_endproc
 202              	.LFE30:
 203              		.size	flash_latency, .-flash_latency
 204 005e 00BF     		.section	.text.pll_start,"ax",%progbits
 205              		.align	2
 206              		.thumb
 207              		.thumb_func
 208              		.type	pll_start, %function
 209              	pll_start:
 210              	.LFB31:
 122:main.c        **** 
 123:main.c        **** /*------------------------------------------------------------------------*//**
 124:main.c        **** * \brief Starts the PLL
 125:main.c        **** * \details Configure and enable PLL to achieve some frequency with some crystal.
 126:main.c        **** * Before the speed change Flash latency is configured via flash_latency(). PLL
 127:main.c        **** * parameter mul is based on both function parameters. The PLL is set up,
 128:main.c        **** * started and connected. APB1 clock ratio is set to 1:2 (max freq = 36MHz)
 129:main.c        **** *
 130:main.c        **** * \param [in] crystal is the frequency of the crystal resonator connected to the
 131:main.c        **** * STM32F103RB
 132:main.c        **** * \param [in] frequency is the desired target frequency after enabling the PLL
ARM GAS  C:\Users\Dawid\AppData\Local\Temp\ccmRn2BN.s 			page 7


 133:main.c        **** *
 134:main.c        **** * \return real frequency that was set
 135:main.c        **** *//*-------------------------------------------------------------------------*/
 136:main.c        **** 
 137:main.c        **** static uint32_t pll_start(uint32_t crystal, uint32_t frequency)
 138:main.c        **** {
 211              		.loc 1 138 0
 212              		.cfi_startproc
 213              		@ args = 0, pretend = 0, frame = 16
 214              		@ frame_needed = 1, uses_anonymous_args = 0
 215 0000 80B5     		push	{r7, lr}	@
 216              	.LCFI6:
 217              		.cfi_def_cfa_offset 8
 218              		.cfi_offset 14, -4
 219              		.cfi_offset 7, -8
 220 0002 84B0     		sub	sp, sp, #16	@,,
 221              	.LCFI7:
 222              		.cfi_def_cfa_offset 24
 223 0004 00AF     		add	r7, sp, #0	@,,
 224              	.LCFI8:
 225              		.cfi_def_cfa_register 7
 226 0006 7860     		str	r0, [r7, #4]	@ crystal, crystal
 227 0008 3960     		str	r1, [r7, #0]	@ frequency, frequency
 139:main.c        **** 	uint32_t mul;
 140:main.c        **** 
 141:main.c        **** 	RCC_CR_HSEON_bb = 1;					// enable HSE clock
 228              		.loc 1 141 0
 229 000a 4FF04003 		mov	r3, #64	@ D.5613,
 230 000e C4F24223 		movt	r3, 16962	@ D.5613,
 231 0012 4FF00102 		mov	r2, #1	@ tmp156,
 232 0016 1A60     		str	r2, [r3, #0]	@ tmp156, *D.5613_2
 142:main.c        **** 	flash_latency(frequency);				// configure Flash latency for desired frequency
 233              		.loc 1 142 0
 234 0018 3868     		ldr	r0, [r7, #0]	@, frequency
 235 001a FFF7FEFF 		bl	flash_latency	@
 143:main.c        **** 
 144:main.c        **** 	mul = frequency / crystal;				// PLL multiplier calculation
 236              		.loc 1 144 0
 237 001e 3A68     		ldr	r2, [r7, #0]	@ tmp159, frequency
 238 0020 7B68     		ldr	r3, [r7, #4]	@ tmp160, crystal
 239 0022 B2FBF3F3 		udiv	r3, r2, r3	@ tmp158, tmp159, tmp160
 240 0026 FB60     		str	r3, [r7, #12]	@ tmp158, mul
 145:main.c        **** 
 146:main.c        **** 	if (mul > 16)							// max PLL multiplier is 16
 241              		.loc 1 146 0
 242 0028 FB68     		ldr	r3, [r7, #12]	@ tmp161, mul
 243 002a 102B     		cmp	r3, #16	@ tmp161,
 244 002c 02D9     		bls	.L12	@,
 147:main.c        **** 		mul = 16;
 245              		.loc 1 147 0
 246 002e 4FF01003 		mov	r3, #16	@ tmp162,
 247 0032 FB60     		str	r3, [r7, #12]	@ tmp162, mul
 248              	.L12:
 148:main.c        **** 
 149:main.c        **** 	frequency = crystal * mul;
 249              		.loc 1 149 0
 250 0034 7B68     		ldr	r3, [r7, #4]	@ tmp163, crystal
ARM GAS  C:\Users\Dawid\AppData\Local\Temp\ccmRn2BN.s 			page 8


 251 0036 FA68     		ldr	r2, [r7, #12]	@ tmp164, mul
 252 0038 02FB03F3 		mul	r3, r2, r3	@ tmp165, tmp164, tmp163
 253 003c 3B60     		str	r3, [r7, #0]	@ tmp165, frequency
 150:main.c        **** 
 151:main.c        **** 	RCC->CFGR |= ((mul - 2) << RCC_CFGR_PLLMUL_bit) | RCC_CFGR_PLLSRC | RCC_CFGR_PPRE1_DIV2;	// config
 254              		.loc 1 151 0
 255 003e 4FF48053 		mov	r3, #4096	@ D.5616,
 256 0042 C4F20203 		movt	r3, 16386	@ D.5616,
 257 0046 4FF48052 		mov	r2, #4096	@ D.5617,
 258 004a C4F20202 		movt	r2, 16386	@ D.5617,
 259 004e 5268     		ldr	r2, [r2, #4]	@ tmp166,
 260 0050 1146     		mov	r1, r2	@ D.5618, tmp166
 261 0052 FA68     		ldr	r2, [r7, #12]	@ tmp167, mul
 262 0054 A2F10202 		sub	r2, r2, #2	@ D.5619, tmp167,
 263 0058 4FEA8242 		lsl	r2, r2, #18	@ D.5620, D.5619,
 264 005c 0A43     		orrs	r2, r2, r1	@, D.5621, D.5620, D.5618
 265 005e 42F48232 		orr	r2, r2, #66560	@ D.5622, D.5621,
 266 0062 5A60     		str	r2, [r3, #4]	@ D.5622, D.5616_8->CFGR
 152:main.c        **** 
 153:main.c        **** 	while (!RCC_CR_HSERDY_bb);				// wait for stable clock
 267              		.loc 1 153 0
 268 0064 00BF     		nop
 269              	.L13:
 270              		.loc 1 153 0 is_stmt 0 discriminator 1
 271 0066 4FF04403 		mov	r3, #68	@ D.5623,
 272 006a C4F24223 		movt	r3, 16962	@ D.5623,
 273 006e 1B68     		ldr	r3, [r3, #0]	@ D.5624, *D.5623_15
 274 0070 002B     		cmp	r3, #0	@ D.5624,
 275 0072 F8D0     		beq	.L13	@,
 154:main.c        **** 
 155:main.c        **** 	RCC_CR_PLLON_bb = 1;					// enable PLL
 276              		.loc 1 155 0 is_stmt 1
 277 0074 4FF06003 		mov	r3, #96	@ D.5625,
 278 0078 C4F24223 		movt	r3, 16962	@ D.5625,
 279 007c 4FF00102 		mov	r2, #1	@ tmp168,
 280 0080 1A60     		str	r2, [r3, #0]	@ tmp168, *D.5625_17
 156:main.c        **** 	while (!RCC_CR_PLLRDY_bb);				// wait for PLL lock
 281              		.loc 1 156 0
 282 0082 00BF     		nop
 283              	.L14:
 284              		.loc 1 156 0 is_stmt 0 discriminator 1
 285 0084 4FF06403 		mov	r3, #100	@ D.5626,
 286 0088 C4F24223 		movt	r3, 16962	@ D.5626,
 287 008c 1B68     		ldr	r3, [r3, #0]	@ D.5627, *D.5626_18
 288 008e 002B     		cmp	r3, #0	@ D.5627,
 289 0090 F8D0     		beq	.L14	@,
 157:main.c        **** 
 158:main.c        **** 	RCC->CFGR |= RCC_CFGR_SW_PLL;			// change SYSCLK to PLL
 290              		.loc 1 158 0 is_stmt 1
 291 0092 4FF48053 		mov	r3, #4096	@ D.5628,
 292 0096 C4F20203 		movt	r3, 16386	@ D.5628,
 293 009a 4FF48052 		mov	r2, #4096	@ D.5629,
 294 009e C4F20202 		movt	r2, 16386	@ D.5629,
 295 00a2 5268     		ldr	r2, [r2, #4]	@ tmp169,
 296 00a4 42F00202 		orr	r2, r2, #2	@ D.5631, D.5630,
 297 00a8 5A60     		str	r2, [r3, #4]	@ D.5631, D.5628_20->CFGR
 159:main.c        **** 	while (((RCC->CFGR) & RCC_CFGR_SWS) != RCC_CFGR_SWS_PLL);	// wait for switch
ARM GAS  C:\Users\Dawid\AppData\Local\Temp\ccmRn2BN.s 			page 9


 298              		.loc 1 159 0
 299 00aa 00BF     		nop
 300              	.L15:
 301              		.loc 1 159 0 is_stmt 0 discriminator 1
 302 00ac 4FF48053 		mov	r3, #4096	@ D.5632,
 303 00b0 C4F20203 		movt	r3, 16386	@ D.5632,
 304 00b4 5B68     		ldr	r3, [r3, #4]	@ tmp170,
 305 00b6 03F00C03 		and	r3, r3, #12	@ D.5634, D.5633,
 306 00ba 082B     		cmp	r3, #8	@ D.5634,
 307 00bc F6D1     		bne	.L15	@,
 160:main.c        **** 
 161:main.c        **** 	return frequency;
 308              		.loc 1 161 0 is_stmt 1
 309 00be 3B68     		ldr	r3, [r7, #0]	@ D.5635, frequency
 162:main.c        **** }
 310              		.loc 1 162 0
 311 00c0 1846     		mov	r0, r3	@, <retval>
 312 00c2 07F11007 		add	r7, r7, #16	@,,
 313 00c6 BD46     		mov	sp, r7
 314 00c8 80BD     		pop	{r7, pc}
 315              		.cfi_endproc
 316              	.LFE31:
 317              		.size	pll_start, .-pll_start
 318 00ca 00BF     		.section	.text.system_init,"ax",%progbits
 319              		.align	2
 320              		.thumb
 321              		.thumb_func
 322              		.type	system_init, %function
 323              	system_init:
 324              	.LFB32:
 163:main.c        **** 
 164:main.c        **** /*------------------------------------------------------------------------*//**
 165:main.c        **** * \brief Initializes system
 166:main.c        **** * \details Enables all GPIO ports
 167:main.c        **** *//*-------------------------------------------------------------------------*/
 168:main.c        **** 
 169:main.c        **** static void system_init(void)
 170:main.c        **** {
 325              		.loc 1 170 0
 326              		.cfi_startproc
 327              		@ args = 0, pretend = 0, frame = 0
 328              		@ frame_needed = 1, uses_anonymous_args = 0
 329 0000 80B5     		push	{r7, lr}	@
 330              	.LCFI9:
 331              		.cfi_def_cfa_offset 8
 332              		.cfi_offset 14, -4
 333              		.cfi_offset 7, -8
 334 0002 00AF     		add	r7, sp, #0	@,,
 335              	.LCFI10:
 336              		.cfi_def_cfa_register 7
 171:main.c        **** 	gpio_init();
 337              		.loc 1 171 0
 338 0004 FFF7FEFF 		bl	gpio_init	@
 172:main.c        **** }
 339              		.loc 1 172 0
 340 0008 80BD     		pop	{r7, pc}	@
 341              		.cfi_endproc
ARM GAS  C:\Users\Dawid\AppData\Local\Temp\ccmRn2BN.s 			page 10


 342              	.LFE32:
 343              		.size	system_init, .-system_init
 344 000a 00BF     		.text
 345              	.Letext0:
 346              		.file 2 "inc/stm32f10x.h"
 347              		.file 3 "c:\\program files\\gnu tools arm embedded\\4.6 2012q2\\bin\\../lib/gcc/arm-none-eabi/4.6.
 348              		.file 4 "inc/core_cm3.h"